target datalayout = "e-m:e-p270:32:32-p271:32:32-p272:64:64-i64:64-i128:128-f80:128-n8:16:32:64-S128"
target triple = "x86_64-pc-linux-gnu"

%class.expr_pattern_match = type { ptr, %class.ref_vector, %class.svector, %class.svector.1, %class.ptr_vector.3, %class.ptr_vector.5, %class.ptr_vector.5 }
%class.ref_vector = type { %class.ref_vector_core }
%class.ref_vector_core = type { %class.ref_manager_wrapper, %class.ptr_vector }
%class.ref_manager_wrapper = type { ptr }
%class.ptr_vector = type { %class.vector }
%class.vector = type { ptr }
%class.svector = type { %class.vector.0 }
%class.vector.0 = type { ptr }
%class.svector.1 = type { %class.vector.2 }
%class.vector.2 = type { ptr }
%class.ptr_vector.3 = type { %class.vector.4 }
%class.vector.4 = type { ptr }
%class.ptr_vector.5 = type { %class.vector.6 }
%class.vector.6 = type { ptr }
%"struct.expr_pattern_match::instr" = type { i32, i32, i32, ptr, ptr, i32, i32, i32, i32 }

; Function Attrs: mustprogress nounwind uwtable
define linkonce_odr hidden noundef i32 @_ZNK6vectorIP10quantifierLb0EjE4sizeEv(ptr noundef nonnull align 8 dereferenceable(8) %0) #5 comdat align 2 {
  %2 = alloca i32, align 4
  %3 = alloca ptr, align 8
  store ptr %0, ptr %3, align 8, !tbaa !422
  %4 = load ptr, ptr %3, align 8
  %5 = getelementptr inbounds nuw %class.vector, ptr %4, i32 0, i32 0
  %6 = load ptr, ptr %5, align 8, !tbaa !424
  %7 = icmp eq ptr %6, null
  br i1 %7, label %8, label %9

8:                                                ; preds = %1
  store i32 0, ptr %2, align 4
  br label %14

9:                                                ; preds = %1
  %10 = getelementptr inbounds nuw %class.vector, ptr %4, i32 0, i32 0
  %11 = load ptr, ptr %10, align 8, !tbaa !424
  %12 = getelementptr inbounds i32, ptr %11, i64 -1
  %13 = load i32, ptr %12, align 4, !tbaa !28
  store i32 %13, ptr %2, align 4
  br label %14

14:                                               ; preds = %9, %8
  %15 = load i32, ptr %2, align 4
  ret i32 %15
}

; Function Attrs: mustprogress uwtable
define linkonce_odr hidden noundef i32 @_ZNK15ref_vector_coreI10quantifier19ref_manager_wrapperIS0_11ast_managerEE4sizeEv(ptr noundef nonnull align 8 dereferenceable(16) %0) #4 comdat align 2 {
  %2 = alloca ptr, align 8
  store ptr %0, ptr %2, align 8, !tbaa !47
  %3 = load ptr, ptr %2, align 8
  %4 = getelementptr inbounds nuw %class.ref_vector_core, ptr %3, i32 0, i32 1
  %5 = call noundef i32 @_ZNK6vectorIP10quantifierLb0EjE4sizeEv(ptr noundef nonnull align 8 dereferenceable(8) %4)
  ret i32 %5
}

; Function Attrs: mustprogress uwtable
define linkonce_odr hidden noundef nonnull align 8 dereferenceable(8) ptr @_ZN6vectorIN18expr_pattern_match5instrELb0EjE9push_backEOS1_(ptr noundef nonnull align 8 dereferenceable(8) %0, ptr noundef nonnull align 8 dereferenceable(48) %1) #4 comdat align 2 {
  %3 = alloca ptr, align 8
  %4 = alloca ptr, align 8
  store ptr %0, ptr %3, align 8, !tbaa !137
  store ptr %1, ptr %4, align 8, !tbaa !140
  %5 = load ptr, ptr %3, align 8
  %6 = getelementptr inbounds nuw %class.vector.2, ptr %5, i32 0, i32 0
  %7 = load ptr, ptr %6, align 8, !tbaa !139
  %8 = icmp eq ptr %7, null
  br i1 %8, label %19, label %9

9:                                                ; preds = %2
  %10 = getelementptr inbounds nuw %class.vector.2, ptr %5, i32 0, i32 0
  %11 = load ptr, ptr %10, align 8, !tbaa !139
  %12 = getelementptr inbounds i32, ptr %11, i64 -1
  %13 = load i32, ptr %12, align 4, !tbaa !28
  %14 = getelementptr inbounds nuw %class.vector.2, ptr %5, i32 0, i32 0
  %15 = load ptr, ptr %14, align 8, !tbaa !139
  %16 = getelementptr inbounds i32, ptr %15, i64 -2
  %17 = load i32, ptr %16, align 4, !tbaa !28
  %18 = icmp eq i32 %13, %17
  br i1 %18, label %19, label %20

19:                                               ; preds = %9, %2
  call void @_ZN6vectorIN18expr_pattern_match5instrELb0EjE13expand_vectorEv(ptr noundef nonnull align 8 dereferenceable(8) %5)
  br label %20

20:                                               ; preds = %19, %9
  %21 = getelementptr inbounds nuw %class.vector.2, ptr %5, i32 0, i32 0
  %22 = load ptr, ptr %21, align 8, !tbaa !139
  %23 = getelementptr inbounds nuw %class.vector.2, ptr %5, i32 0, i32 0
  %24 = load ptr, ptr %23, align 8, !tbaa !139
  %25 = getelementptr inbounds i32, ptr %24, i64 -1
  %26 = load i32, ptr %25, align 4, !tbaa !28
  %27 = zext i32 %26 to i64
  %28 = getelementptr inbounds nuw %"struct.expr_pattern_match::instr", ptr %22, i64 %27
  %29 = load ptr, ptr %4, align 8, !tbaa !140
  call void @llvm.memcpy.p0.p0.i64(ptr align 8 %28, ptr align 8 %29, i64 48, i1 false), !tbaa.struct !80
  %30 = getelementptr inbounds nuw %class.vector.2, ptr %5, i32 0, i32 0
  %31 = load ptr, ptr %30, align 8, !tbaa !139
  %32 = getelementptr inbounds i32, ptr %31, i64 -1
  %33 = load i32, ptr %32, align 4, !tbaa !28
  %34 = add i32 %33, 1
  store i32 %34, ptr %32, align 4, !tbaa !28
  ret ptr %5
}

; Function Attrs: mustprogress nounwind uwtable
define linkonce_odr hidden void @_ZN18expr_pattern_match5instrC2ENS_10instr_kindE(ptr noundef nonnull align 8 dereferenceable(48) %0, i32 noundef %1) unnamed_addr #5 comdat align 2 {
  %3 = alloca ptr, align 8
  %4 = alloca i32, align 4
  store ptr %0, ptr %3, align 8, !tbaa !140
  store i32 %1, ptr %4, align 4, !tbaa !81
  %5 = load ptr, ptr %3, align 8
  %6 = getelementptr inbounds nuw %"struct.expr_pattern_match::instr", ptr %5, i32 0, i32 0
  %7 = load i32, ptr %4, align 4, !tbaa !81
  store i32 %7, ptr %6, align 8, !tbaa !84
  %8 = getelementptr inbounds nuw %"struct.expr_pattern_match::instr", ptr %5, i32 0, i32 1
  store i32 0, ptr %8, align 4, !tbaa !89
  %9 = getelementptr inbounds nuw %"struct.expr_pattern_match::instr", ptr %5, i32 0, i32 2
  store i32 0, ptr %9, align 8, !tbaa !98
  %10 = getelementptr inbounds nuw %"struct.expr_pattern_match::instr", ptr %5, i32 0, i32 3
  store ptr null, ptr %10, align 8, !tbaa !99
  %11 = getelementptr inbounds nuw %"struct.expr_pattern_match::instr", ptr %5, i32 0, i32 4
  store ptr null, ptr %11, align 8, !tbaa !86
  %12 = getelementptr inbounds nuw %"struct.expr_pattern_match::instr", ptr %5, i32 0, i32 5
  store i32 0, ptr %12, align 8, !tbaa !87
  %13 = getelementptr inbounds nuw %"struct.expr_pattern_match::instr", ptr %5, i32 0, i32 6
  store i32 0, ptr %13, align 4, !tbaa !88
  %14 = getelementptr inbounds nuw %"struct.expr_pattern_match::instr", ptr %5, i32 0, i32 7
  store i32 0, ptr %14, align 8, !tbaa !101
  %15 = getelementptr inbounds nuw %"struct.expr_pattern_match::instr", ptr %5, i32 0, i32 8
  store i32 0, ptr %15, align 4, !tbaa !95
  ret void
}

; Function Attrs: mustprogress nounwind uwtable
define linkonce_odr hidden noundef zeroext i1 @_ZNK6vectorIN18expr_pattern_match5instrELb0EjE5emptyEv(ptr noundef nonnull align 8 dereferenceable(8) %0) #5 comdat align 2 {
  %2 = alloca ptr, align 8
  store ptr %0, ptr %2, align 8, !tbaa !137
  %3 = load ptr, ptr %2, align 8
  %4 = getelementptr inbounds nuw %class.vector.2, ptr %3, i32 0, i32 0
  %5 = load ptr, ptr %4, align 8, !tbaa !139
  %6 = icmp eq ptr %5, null
  br i1 %6, label %13, label %7

7:                                                ; preds = %1
  %8 = getelementptr inbounds nuw %class.vector.2, ptr %3, i32 0, i32 0
  %9 = load ptr, ptr %8, align 8, !tbaa !139
  %10 = getelementptr inbounds i32, ptr %9, i64 -1
  %11 = load i32, ptr %10, align 4, !tbaa !28
  %12 = icmp eq i32 %11, 0
  br label %13

13:                                               ; preds = %7, %1
  %14 = phi i1 [ true, %1 ], [ %12, %7 ]
  ret i1 %14
}

; Function Attrs: mustprogress uwtable
define hidden noundef i32 @_ZN18expr_pattern_match10initializeEP10quantifier(ptr noundef nonnull align 8 dereferenceable(64) %0, ptr noundef %1) #4 align 2 {
  %3 = alloca ptr, align 8
  %4 = alloca ptr, align 8
  %5 = alloca %"struct.expr_pattern_match::instr", align 8
  store ptr %0, ptr %3, align 8, !tbaa !3
  store ptr %1, ptr %4, align 8, !tbaa !20
  %6 = load ptr, ptr %3, align 8
  %7 = getelementptr inbounds nuw %class.expr_pattern_match, ptr %6, i32 0, i32 3
  %8 = call noundef zeroext i1 @_ZNK6vectorIN18expr_pattern_match5instrELb0EjE5emptyEv(ptr noundef nonnull align 8 dereferenceable(8) %7)
  br i1 %8, label %9, label %12

9:                                                ; preds = %2
  %10 = getelementptr inbounds nuw %class.expr_pattern_match, ptr %6, i32 0, i32 3
  call void @llvm.lifetime.start.p0(i64 48, ptr %5) #3
  call void @_ZN18expr_pattern_match5instrC2ENS_10instr_kindE(ptr noundef nonnull align 8 dereferenceable(48) %5, i32 noundef 0)
  %11 = call noundef nonnull align 8 dereferenceable(8) ptr @_ZN6vectorIN18expr_pattern_match5instrELb0EjE9push_backEOS1_(ptr noundef nonnull align 8 dereferenceable(8) %10, ptr noundef nonnull align 8 dereferenceable(48) %5)
  call void @llvm.lifetime.end.p0(i64 48, ptr %5) #3
  br label %12

12:                                               ; preds = %9, %2
  %13 = load ptr, ptr %4, align 8, !tbaa !20
  call void @_ZN18expr_pattern_match7compileEP4expr(ptr noundef nonnull align 8 dereferenceable(64) %6, ptr noundef %13)
  %14 = getelementptr inbounds nuw %class.expr_pattern_match, ptr %6, i32 0, i32 1
  %15 = call noundef i32 @_ZNK15ref_vector_coreI10quantifier19ref_manager_wrapperIS0_11ast_managerEE4sizeEv(ptr noundef nonnull align 8 dereferenceable(16) %14)
  %16 = sub i32 %15, 1
  ret i32 %16
}