; Function Attrs: mustprogress uwtable
define hidden noundef i32 @_ZN18expr_pattern_match10initializeEP10quantifier(ptr noundef nonnull align 8 dereferenceable(64) %0, ptr noundef %1) local_unnamed_addr #4 align 2 {
  %.sroa.6 = alloca [36 x i8], align 4
  %3 = getelementptr inbounds nuw i8, ptr %0, i64 32
  %4 = load ptr, ptr %3, align 8, !tbaa !74
  %5 = icmp eq ptr %4, null
  br i1 %5, label %.thread, label %_ZNK6vectorIN18expr_pattern_match5instrELb0EjE5emptyEv.exit

.thread:                                          ; preds = %2
  call void @llvm.lifetime.start.p0(i64 36, ptr nonnull %.sroa.6)
  %.sroa.6.4..sroa_idx5 = getelementptr inbounds nuw i8, ptr %.sroa.6, i64 4
  call void @llvm.memset.p0.i64(ptr noundef nonnull align 4 dereferenceable(32) %.sroa.6.4..sroa_idx5, i8 0, i64 32, i1 false)
  br label %13

_ZNK6vectorIN18expr_pattern_match5instrELb0EjE5emptyEv.exit: ; preds = %2
  %6 = getelementptr inbounds i8, ptr %4, i64 -4
  %7 = load i32, ptr %6, align 4, !tbaa !12
  %8 = icmp eq i32 %7, 0
  br i1 %8, label %9, label %22

9:                                                ; preds = %_ZNK6vectorIN18expr_pattern_match5instrELb0EjE5emptyEv.exit
  call void @llvm.lifetime.start.p0(i64 36, ptr nonnull %.sroa.6)
  %.sroa.6.4..sroa_idx = getelementptr inbounds nuw i8, ptr %.sroa.6, i64 4
  call void @llvm.memset.p0.i64(ptr noundef nonnull align 4 dereferenceable(32) %.sroa.6.4..sroa_idx, i8 0, i64 32, i1 false)
  %10 = getelementptr inbounds i8, ptr %4, i64 -8
  %11 = load i32, ptr %10, align 4, !tbaa !12
  %12 = icmp eq i32 %11, 0
  br i1 %12, label %13, label %_ZN6vectorIN18expr_pattern_match5instrELb0EjE9push_backEOS1_.exit

13:                                               ; preds = %.thread, %9
  tail call void @_ZN6vectorIN18expr_pattern_match5instrELb0EjE13expand_vectorEv(ptr noundef nonnull align 8 dereferenceable(8) %3)
  %.pre.i = load ptr, ptr %3, align 8, !tbaa !74
  %.phi.trans.insert.i = getelementptr inbounds i8, ptr %.pre.i, i64 -4
  %.pre2.i = load i32, ptr %.phi.trans.insert.i, align 4, !tbaa !12
  %14 = zext i32 %.pre2.i to i64
  br label %_ZN6vectorIN18expr_pattern_match5instrELb0EjE9push_backEOS1_.exit

_ZN6vectorIN18expr_pattern_match5instrELb0EjE9push_backEOS1_.exit: ; preds = %9, %13
  %15 = phi i64 [ %14, %13 ], [ 0, %9 ]
  %16 = phi ptr [ %.pre.i, %13 ], [ %4, %9 ]
  %17 = getelementptr inbounds nuw %"struct.expr_pattern_match::instr", ptr %16, i64 %15
  store i32 0, ptr %17, align 8, !tbaa !75
  %.sroa.4.0..sroa_idx = getelementptr inbounds nuw i8, ptr %17, i64 4
  store i32 0, ptr %.sroa.4.0..sroa_idx, align 4, !tbaa !12
  %.sroa.5.0..sroa_idx = getelementptr inbounds nuw i8, ptr %17, i64 8
  store i32 0, ptr %.sroa.5.0..sroa_idx, align 8, !tbaa !12
  %.sroa.6.0..sroa_idx = getelementptr inbounds nuw i8, ptr %17, i64 12
  call void @llvm.memcpy.p0.p0.i64(ptr noundef nonnull align 4 dereferenceable(36) %.sroa.6.0..sroa_idx, ptr noundef nonnull align 4 dereferenceable(36) %.sroa.6, i64 36, i1 false), !tbaa.struct !169
  %18 = load ptr, ptr %3, align 8, !tbaa !74
  %19 = getelementptr inbounds i8, ptr %18, i64 -4
  %20 = load i32, ptr %19, align 4, !tbaa !12
  %21 = add i32 %20, 1
  store i32 %21, ptr %19, align 4, !tbaa !12
  call void @llvm.lifetime.end.p0(i64 36, ptr nonnull %.sroa.6)
  br label %22

22:                                               ; preds = %_ZN6vectorIN18expr_pattern_match5instrELb0EjE9push_backEOS1_.exit, %_ZNK6vectorIN18expr_pattern_match5instrELb0EjE5emptyEv.exit
  tail call void @_ZN18expr_pattern_match7compileEP4expr(ptr noundef nonnull align 8 dereferenceable(64) %0, ptr noundef %1)
  %23 = getelementptr inbounds nuw i8, ptr %0, i64 16
  %24 = load ptr, ptr %23, align 8, !tbaa !25
  %25 = icmp eq ptr %24, null
  br i1 %25, label %_ZNK15ref_vector_coreI10quantifier19ref_manager_wrapperIS0_11ast_managerEE4sizeEv.exit, label %26

26:                                               ; preds = %22
  %27 = getelementptr inbounds i8, ptr %24, i64 -4
  %28 = load i32, ptr %27, align 4, !tbaa !12
  %29 = add i32 %28, -1
  br label %_ZNK15ref_vector_coreI10quantifier19ref_manager_wrapperIS0_11ast_managerEE4sizeEv.exit

_ZNK15ref_vector_coreI10quantifier19ref_manager_wrapperIS0_11ast_managerEE4sizeEv.exit: ; preds = %22, %26
  %.0.i.i = phi i32 [ %29, %26 ], [ -1, %22 ]
  ret i32 %.0.i.i
}